; Function Attrs: mustprogress nofree norecurse nosync nounwind memory(readwrite, inaccessiblemem: none) uwtable
define internal void @"_ZN18OpenImageIO_v2_6_013function_viewIFviEE11callback_fnIZNS_10ImageInput21read_native_scanlinesEiiiiiiiPvE3$_0EEvli"(i64 noundef %callable, i32 noundef %params) #20 align 2 {
entry:
  %0 = inttoptr i64 %callable to ptr
  %conv = sext i32 %params to i64
  %1 = getelementptr inbounds i8, ptr %0, i64 24
  %2 = load ptr, ptr %1, align 8
  %3 = load ptr, ptr %2, align 8
  %4 = getelementptr inbounds i8, ptr %0, i64 32
  %5 = load ptr, ptr %4, align 8
  %6 = load i64, ptr %5, align 8
  %mul.i = mul i64 %6, %conv
  %add.ptr.i = getelementptr inbounds i8, ptr %3, i64 %mul.i
  %7 = getelementptr inbounds i8, ptr %0, i64 40
  %8 = load ptr, ptr %7, align 8
  %9 = load ptr, ptr %8, align 8
  %10 = getelementptr inbounds i8, ptr %0, i64 48
  %11 = load ptr, ptr %10, align 8
  %12 = load i64, ptr %11, align 8
  %mul2.i = mul i64 %12, %conv
  %add.ptr3.i = getelementptr inbounds i8, ptr %9, i64 %mul2.i
  %13 = getelementptr inbounds i8, ptr %0, i64 56
  %14 = load ptr, ptr %13, align 8
  %width5.i = getelementptr inbounds i8, ptr %14, i64 12
  %15 = load i32, ptr %width5.i, align 4
  %cmp6.i = icmp sgt i32 %15, 0
  br i1 %cmp6.i, label %for.body.lr.ph.i, label %"_ZZN18OpenImageIO_v2_6_010ImageInput21read_native_scanlinesEiiiiiiiPvENK3$_0clEl.exit"

for.body.lr.ph.i:                                 ; preds = %entry
  %16 = getelementptr inbounds i8, ptr %0, i64 8
  %17 = getelementptr inbounds i8, ptr %0, i64 16
  br label %for.body.i

for.body.i:                                       ; preds = %for.body.i, %for.body.lr.ph.i
  %indvars.iv.i = phi i64 [ 0, %for.body.lr.ph.i ], [ %indvars.iv.next.i, %for.body.i ]
  %18 = load i64, ptr %0, align 8
  %mul4.i = mul i64 %18, %indvars.iv.i
  %add.ptr5.i = getelementptr inbounds i8, ptr %add.ptr3.i, i64 %mul4.i
  %19 = load i64, ptr %16, align 8
  %20 = load i64, ptr %17, align 8
  %mul7.i = mul i64 %20, %indvars.iv.i
  %21 = getelementptr i8, ptr %add.ptr.i, i64 %19
  %arrayidx.i = getelementptr i8, ptr %21, i64 %mul7.i
  tail call void @llvm.memcpy.p0.p0.i64(ptr align 1 %add.ptr5.i, ptr align 1 %arrayidx.i, i64 %18, i1 false)
  %indvars.iv.next.i = add nuw nsw i64 %indvars.iv.i, 1
  %22 = load ptr, ptr %13, align 8
  %width.i = getelementptr inbounds i8, ptr %22, i64 12
  %23 = load i32, ptr %width.i, align 4
  %24 = sext i32 %23 to i64
  %cmp.i = icmp slt i64 %indvars.iv.next.i, %24
  br i1 %cmp.i, label %for.body.i, label %"_ZZN18OpenImageIO_v2_6_010ImageInput21read_native_scanlinesEiiiiiiiPvENK3$_0clEl.exit", !llvm.loop !323

"_ZZN18OpenImageIO_v2_6_010ImageInput21read_native_scanlinesEiiiiiiiPvENK3$_0clEl.exit": ; preds = %for.body.i, %entry
  ret void
}